(lp0
(dp1
S'memory_bytes_spilled'
p2
I0
sS'stage_id'
p3
I0
sS'fetch_wait_time'
p4
I0
sS'shuffle_write_records'
p5
I0
sS'deserialize'
p6
F0.036576444769568395
sS'locality'
p7
I2
sS'shuffle_write_bytes'
p8
I0
sS'serialize'
p9
F0.16971470373079736
sS'shuffle_read_bytes'
p10
F1.335568475295918
sS'label'
p11
I0
sS'cpu'
p12
F12.478
sS'data_read_method'
p13
I0
sS'JVM_time'
p14
F0.14996342355523043
sS'remote_fetch_rate'
p15
I0
sS'io'
p16
F86.16
sS'executor_run_ime'
p17
F0.38527188490612047
sS'bytes_read'
p18
I0
sS'shuffle_records'
p19
F1.0004814959072847
sS'net'
p20
F8.907708
sS'disk_bytes_spilled'
p21
I0
sa(dp22
g2
I0
sg3
I0
sg4
I0
sg5
I0
sg6
F0.040737148399612025
sg7
I2
sg8
I0
sg9
F0.20142256708697057
sg10
F1.335772446230534
sg11
I0
sg12
F49.019999999999996
sg13
I0
sg14
F0.04558680892337536
sg15
I0
sg16
F17.200000000000003
sg17
F0.3947623666343356
sg18
I0
sg19
F1.0004914958222855
sg20
F1.9543675
sg21
I0
sa(dp23
g2
I0
sg3
I0
sg4
I0
sg5
I0
sg6
F0.11345218800648298
sg7
I2
sg8
I0
sg9
F0.21685575364667747
sg10
F1.335502066154415
sg11
I0
sg12
F30.89
sg13
I0
sg14
F0.06515397082658023
sg15
I0
sg16
F63.099999999999994
sg17
F0.3121555915721232
sg18
I0
sg19
F1.0003114973522724
sg20
F21.895895000000003
sg21
I0
sa(dp24
g2
I0
sg3
I0
sg4
I0
sg5
I0
sg6
F0.10229322339603195
sg7
I2
sg8
I0
sg9
F0.2615305333676887
sg10
F1.3354902073791466
sg11
I0
sg12
F0.0
sg13
I0
sg14
F0.14403504251481578
sg15
I0
sg16
F0.0
sg17
F0.21669672764751352
sg18
I0
sg19
F1.0002014982872645
sg20
F0.0
sg21
I0
sa(dp25
g2
I0
sg3
I0
sg4
I0
sg5
I0
sg6
F0.0009199632014719411
sg7
I2
sg8
I0
sg9
F0.09199632014719411
sg10
F1.3348403464944394
sg11
I0
sg12
F27.106666666666666
sg13
I0
sg14
F0.045998160073597055
sg15
I0
sg16
F55.73333333333333
sg17
F0.14489420423183072
sg18
I0
sg19
F0.9999215006672443
sg20
F2.771576666666667
sg21
I0
sa(dp26
g2
I0
sg3
I0
sg4
I0
sg5
I0
sg6
F0.016574585635359115
sg7
I2
sg8
I0
sg9
F0.06195737963693765
sg10
F1.3347241304968092
sg11
I0
sg12
F25.195
sg13
I0
sg14
F0.03946329913180742
sg15
I0
sg16
F66.8
sg17
F0.12904498816101026
sg18
I0
sg19
F0.9997415021972313
sg20
F5.1953475000000005
sg21
I0
sa(dp27
g2
I0
sg3
I0
sg4
I0
sg5
I0
sg6
F0.0009861932938856016
sg7
I2
sg8
I0
sg9
F0.08678500986193294
sg10
F1.3345818251935886
sg11
I0
sg12
F30.623333333333335
sg13
I0
sg14
F0.026134122287968443
sg15
I0
sg16
F96.26666666666667
sg17
F0.1247534516765286
sg18
I0
sg19
F0.9996615028772255
sg20
F25.713003333333337
sg21
I0
sa(dp28
g2
I0
sg3
I0
sg4
I0
sg5
I0
sg6
F0.004725897920604915
sg7
I2
sg8
I0
sg9
F0.08175803402646503
sg10
F1.3344584939307973
sg11
I0
sg12
F30.623333333333335
sg13
I0
sg14
F0.02504725897920605
sg15
I0
sg16
F96.26666666666667
sg17
F0.11814744801512288
sg18
I0
sg19
F0.9994715044922118
sg20
F25.713003333333337
sg21
I0
sa.