(lp0
(dp1
S'memory_bytes_spilled'
p2
I0
sS'stage_id'
p3
I0
sS'fetch_wait_time'
p4
I0
sS'shuffle_write_records'
p5
I0
sS'deserialize'
p6
F0.06766917293233082
sS'locality'
p7
I2
sS'shuffle_write_bytes'
p8
I0
sS'serialize'
p9
F0.007518796992481203
sS'shuffle_read_bytes'
p10
F4.980615849213139
sS'label'
p11
I1
sS'cpu'
p12
F0.0
sS'data_read_method'
p13
I0
sS'JVM_time'
p14
F0.0
sS'remote_fetch_rate'
p15
I0
sS'io'
p16
F0.8
sS'executor_run_ime'
p17
F0.48872180451127817
sS'bytes_read'
p18
I0
sS'shuffle_records'
p19
F4.2105263157894735
sS'net'
p20
F0.00069
sS'disk_bytes_spilled'
p21
I0
sa(dp22
g2
I0
sg3
I0
sg4
I0
sg5
I0
sg6
F0.12280701754385964
sg7
I2
sg8
I0
sg9
F0.007518796992481203
sg10
F6.246324694968475
sg11
I1
sg12
F0.0
sg13
I0
sg14
F0.0
sg15
I0
sg16
F10.8
sg17
F0.37593984962406013
sg18
I0
sg19
F4.2105263157894735
sg20
F2.16341
sg21
I0
sa(dp23
g2
I0
sg3
I0
sg4
I0
sg5
I0
sg6
F0.05778894472361809
sg7
I2
sg8
I0
sg9
F0.010050251256281407
sg10
F4.982951470376964
sg11
I1
sg12
F93.37
sg13
I0
sg14
F0.0
sg15
I0
sg16
F0.0
sg17
F0.4623115577889447
sg18
I0
sg19
F4.2105263157894735
sg20
F2.63449
sg21
I0
sa(dp24
g2
I0
sg3
I0
sg4
I0
sg5
I0
sg6
F0.06088992974238876
sg7
I2
sg8
I0
sg9
F0.00936768149882904
sg10
F6.249251453579369
sg11
I1
sg12
F0.0
sg13
I0
sg14
F0.0
sg15
I0
sg16
F0.0
sg17
F0.468384074941452
sg18
I0
sg19
F4.2105263157894735
sg20
F0.0
sg21
I0
sa(dp25
g2
I0
sg3
I0
sg4
I0
sg5
I0
sg6
F0.05778894472361809
sg7
I2
sg8
I0
sg9
F0.007537688442211055
sg10
F2.5297494741674615
sg11
I1
sg12
F0.0
sg13
I0
sg14
F0.0
sg15
I0
sg16
F0.8
sg17
F0.4371859296482412
sg18
I0
sg19
F3.1578947368421053
sg20
F0.00069
sg21
I0
sa(dp26
g2
I0
sg3
I0
sg4
I0
sg5
I0
sg6
F0.5185185185185185
sg7
I1
sg8
I0
sg9
F0.0
sg10
F0.0
sg11
I1
sg12
F0.0
sg13
I0
sg14
F0.0
sg15
I0
sg16
F0.8
sg17
F0.2037037037037037
sg18
I0
sg19
F0.0
sg20
F0.00069
sg21
I0
sa(dp27
g2
I0
sg3
I0
sg4
I0
sg5
I0
sg6
F0.6923076923076923
sg7
I1
sg8
I0
sg9
F0.0
sg10
F0.0
sg11
I1
sg12
F0.0
sg13
I0
sg14
F0.0
sg15
I0
sg16
F10.8
sg17
F0.12307692307692308
sg18
I0
sg19
F0.0
sg20
F2.16341
sg21
I0
sa(dp28
g2
I0
sg3
I0
sg4
I0
sg5
I0
sg6
F0.3283582089552239
sg7
I1
sg8
I0
sg9
F0.0
sg10
F0.0
sg11
I1
sg12
F93.37
sg13
I0
sg14
F0.0
sg15
I0
sg16
F0.0
sg17
F0.3582089552238806
sg18
I0
sg19
F0.0
sg20
F2.63449
sg21
I0
sa(dp29
g2
I0
sg3
I0
sg4
I0
sg5
I0
sg6
F0.5576923076923077
sg7
I1
sg8
I0
sg9
F0.0
sg10
F0.0
sg11
I1
sg12
F0.0
sg13
I0
sg14
F0.0
sg15
I0
sg16
F0.0
sg17
F0.038461538461538464
sg18
I0
sg19
F0.0
sg20
F0.0
sg21
I0
sa(dp30
g2
I0
sg3
I0
sg4
I0
sg5
I0
sg6
F0.574468085106383
sg7
I1
sg8
I0
sg9
F0.02127659574468085
sg10
F0.0
sg11
I1
sg12
F94.21
sg13
I0
sg14
F0.0
sg15
I0
sg16
F0.0
sg17
F0.0851063829787234
sg18
I0
sg19
F0.0
sg20
F0.018969999999999997
sg21
I0
sa(dp31
g2
I0
sg3
I0
sg4
I0
sg5
I0
sg6
F0.58
sg7
I1
sg8
I0
sg9
F0.0
sg10
F0.0
sg11
I1
sg12
F0.0
sg13
I0
sg14
F0.0
sg15
I0
sg16
F0.8
sg17
F0.18
sg18
I0
sg19
F0.0
sg20
F0.00069
sg21
I0
sa(dp32
g2
I0
sg3
I0
sg4
I0
sg5
I0
sg6
F0.6923076923076923
sg7
I1
sg8
I0
sg9
F0.0
sg10
F0.0
sg11
I1
sg12
F0.0
sg13
I0
sg14
F0.0
sg15
I0
sg16
F10.8
sg17
F0.12307692307692308
sg18
I0
sg19
F0.0
sg20
F2.16341
sg21
I0
sa(dp33
g2
I0
sg3
I0
sg4
I0
sg5
I0
sg6
F0.4230769230769231
sg7
I1
sg8
I0
sg9
F0.0
sg10
F0.0
sg11
I1
sg12
F93.37
sg13
I0
sg14
F0.0
sg15
I0
sg16
F0.0
sg17
F0.21153846153846154
sg18
I0
sg19
F0.0
sg20
F2.63449
sg21
I0
sa(dp34
g2
I0
sg3
I0
sg4
I0
sg5
I0
sg6
F0.5454545454545454
sg7
I1
sg8
I0
sg9
F0.0
sg10
F0.0
sg11
I1
sg12
F0.0
sg13
I0
sg14
F0.0
sg15
I0
sg16
F0.0
sg17
F0.10909090909090909
sg18
I0
sg19
F0.0
sg20
F0.0
sg21
I0
sa(dp35
g2
I0
sg3
I0
sg4
I0
sg5
I0
sg6
F0.5102040816326531
sg7
I1
sg8
I0
sg9
F0.0
sg10
F0.0
sg11
I1
sg12
F94.21
sg13
I0
sg14
F0.0
sg15
I0
sg16
F0.0
sg17
F0.16326530612244897
sg18
I0
sg19
F0.0
sg20
F0.018969999999999997
sg21
I0
sa(dp36
g2
I0
sg3
I0
sg4
I0
sg5
I0
sg6
F0.647887323943662
sg7
I1
sg8
I0
sg9
F0.0
sg10
F0.0
sg11
I1
sg12
F0.0
sg13
I0
sg14
F0.0
sg15
I0
sg16
F10.8
sg17
F0.11267605633802817
sg18
I0
sg19
F0.0
sg20
F2.16341
sg21
I0
sa(dp37
g2
I0
sg3
I0
sg4
I0
sg5
I0
sg6
F0.3125
sg7
I1
sg8
I0
sg9
F0.0
sg10
F0.0
sg11
I1
sg12
F93.37
sg13
I0
sg14
F0.0
sg15
I0
sg16
F0.0
sg17
F0.203125
sg18
I0
sg19
F0.0
sg20
F2.63449
sg21
I0
sa(dp38
g2
I0
sg3
I0
sg4
I0
sg5
I0
sg6
F0.5094339622641509
sg7
I1
sg8
I0
sg9
F0.0
sg10
F0.0
sg11
I1
sg12
F0.0
sg13
I0
sg14
F0.0
sg15
I0
sg16
F0.0
sg17
F0.09433962264150944
sg18
I0
sg19
F0.0
sg20
F0.0
sg21
I0
sa(dp39
g2
I0
sg3
I0
sg4
I0
sg5
I0
sg6
F0.5652173913043478
sg7
I1
sg8
I0
sg9
F0.0
sg10
F0.0
sg11
I1
sg12
F94.21
sg13
I0
sg14
F0.0
sg15
I0
sg16
F0.0
sg17
F0.1956521739130435
sg18
I0
sg19
F0.0
sg20
F0.018969999999999997
sg21
I0
sa(dp40
g2
I0
sg3
I0
sg4
I0
sg5
I0
sg6
F0.5777777777777777
sg7
I1
sg8
I0
sg9
F0.0
sg10
F0.0
sg11
I1
sg12
F94.21
sg13
I0
sg14
F0.0
sg15
I0
sg16
F0.0
sg17
F0.13333333333333333
sg18
I0
sg19
F0.0
sg20
F0.018969999999999997
sg21
I0
sa(dp41
g2
F0.0
sg3
I0
sg4
I0
sg5
I0
sg6
F0.21821036106750394
sg7
I1
sg8
I0
sg9
F0.0
sg10
I0
sg11
I0
sg12
F0.0
sg13
I0
sg14
F0.0
sg15
I0
sg16
F3.2
sg17
F0.6828885400313972
sg18
F0.9920301618055192
sg19
I0
sg20
F4.04899
sg21
F0.0
sa(dp42
g2
F0.0
sg3
I0
sg4
I0
sg5
I0
sg6
F0.24437299035369775
sg7
I1
sg8
I0
sg9
F0.001607717041800643
sg10
I0
sg11
I0
sg12
F0.0
sg13
I0
sg14
F0.011254019292604502
sg15
I0
sg16
F0.0
sg17
F0.6832797427652733
sg18
F0.9899273562401006
sg19
I0
sg20
F0.0
sg21
F0.0
sa(dp43
g2
F0.0
sg3
I0
sg4
I0
sg5
I0
sg6
F0.22275641025641027
sg7
I1
sg8
I0
sg9
F0.0
sg10
I0
sg11
I0
sg12
F0.25
sg13
I0
sg14
F0.0
sg15
I0
sg16
F0.0
sg17
F0.7163461538461539
sg18
F1.005786457022268
sg19
I0
sg20
F0.0003
sg21
F0.0
sa(dp44
g2
F0.0
sg3
I0
sg4
I0
sg5
I0
sg6
F0.2115677321156773
sg7
I1
sg8
I0
sg9
F0.0
sg10
I0
sg11
I0
sg12
F92.88
sg13
I0
sg14
F0.0
sg15
I0
sg16
F0.0
sg17
F0.7382039573820396
sg18
F1.0006889313368137
sg19
I0
sg20
F5.3632
sg21
F0.0
sa(dp45
g2
F0.0
sg3
I0
sg4
I0
sg5
I0
sg6
F0.23978685612788633
sg7
I1
sg8
I0
sg9
F0.003552397868561279
sg10
I0
sg11
I0
sg12
F95.58
sg13
I0
sg14
F0.0
sg15
I0
sg16
F0.0
sg17
F0.69449378330373
sg18
F0.9972479767752197
sg19
I0
sg20
F0.01771
sg21
F0.0
sa(dp46
g2
F0.0
sg3
I0
sg4
I0
sg5
I0
sg6
F0.22972972972972974
sg7
I1
sg8
I0
sg9
F0.0
sg10
I0
sg11
I0
sg12
F0.0
sg13
I0
sg14
F0.0
sg15
I0
sg16
F3.2
sg17
F0.706081081081081
sg18
F0.9873806919266904
sg19
I0
sg20
F4.04899
sg21
F0.0
sa(dp47
g2
F0.0
sg3
I0
sg4
I0
sg5
I0
sg6
F0.25163398692810457
sg7
I1
sg8
I0
sg9
F0.0016339869281045752
sg10
I0
sg11
I0
sg12
F0.0
sg13
I0
sg14
F0.011437908496732025
sg15
I0
sg16
F0.0
sg17
F0.6879084967320261
sg18
F1.0042346539846865
sg19
I0
sg20
F0.0
sg21
F0.0
sa(dp48
g2
F0.0
sg3
I0
sg4
I0
sg5
I0
sg6
F0.2361111111111111
sg7
I1
sg8
I0
sg9
F0.0
sg10
I0
sg11
I0
sg12
F0.25
sg13
I0
sg14
F0.0
sg15
I0
sg16
F0.0
sg17
F0.7083333333333334
sg18
F1.004105495444459
sg19
I0
sg20
F0.0003
sg21
F0.0
sa(dp49
g2
F0.0
sg3
I0
sg4
I0
sg5
I0
sg6
F0.21935483870967742
sg7
I1
sg8
I0
sg9
F0.0
sg10
I0
sg11
I0
sg12
F92.88
sg13
I0
sg14
F0.0
sg15
I0
sg16
F0.0
sg17
F0.7241935483870968
sg18
F0.9909662470366934
sg19
I0
sg20
F5.3632
sg21
F0.0
sa(dp50
g2
F0.0
sg3
I0
sg4
I0
sg5
I0
sg6
F0.22413793103448276
sg7
I1
sg8
I0
sg9
F0.0
sg10
I0
sg11
I0
sg12
F95.58
sg13
I0
sg14
F0.0
sg15
I0
sg16
F0.0
sg17
F0.7137931034482758
sg18
F1.002918361369322
sg19
I0
sg20
F0.01771
sg21
F0.0
sa(dp51
g2
F0.0
sg3
I0
sg4
I0
sg5
I0
sg6
F0.2161290322580645
sg7
I1
sg8
I0
sg9
F0.0
sg10
I0
sg11
I0
sg12
F0.0
sg13
I0
sg14
F0.0
sg15
I0
sg16
F3.2
sg17
F0.7064516129032258
sg18
F1.0031835679611194
sg19
I0
sg20
F4.04899
sg21
F0.0
sa(dp52
g2
F0.0
sg3
I0
sg4
I0
sg5
I0
sg6
F0.2361111111111111
sg7
I1
sg8
I0
sg9
F0.0
sg10
I0
sg11
I0
sg12
F0.0
sg13
I0
sg14
F0.010802469135802469
sg15
I0
sg16
F0.0
sg17
F0.7175925925925926
sg18
F0.9931358887811138
sg19
I0
sg20
F0.0
sg21
F0.0
sa(dp53
g2
F0.0
sg3
I0
sg4
I0
sg5
I0
sg6
F0.2085889570552147
sg7
I1
sg8
I0
sg9
F0.0
sg10
I0
sg11
I0
sg12
F0.25
sg13
I0
sg14
F0.0
sg15
I0
sg16
F0.0
sg17
F0.7377300613496932
sg18
F1.0017033524896723
sg19
I0
sg20
F0.0003
sg21
F0.0
sa(dp54
g2
F0.0
sg3
I0
sg4
I0
sg5
I0
sg6
F0.20153846153846153
sg7
I1
sg8
I0
sg9
F0.0
sg10
I0
sg11
I0
sg12
F92.88
sg13
I0
sg14
F0.0
sg15
I0
sg16
F0.0
sg17
F0.74
sg18
F1.0000931865801426
sg19
I0
sg20
F5.3632
sg21
F0.0
sa(dp55
g2
F0.0
sg3
I0
sg4
I0
sg5
I0
sg6
F0.2340036563071298
sg7
I1
sg8
I0
sg9
F0.0018281535648994515
sg10
I0
sg11
I0
sg12
F95.58
sg13
I0
sg14
F0.0
sg15
I0
sg16
F0.0
sg17
F0.70018281535649
sg18
F1.0092754005939035
sg19
I0
sg20
F0.01771
sg21
F0.0
sa(dp56
g2
F0.0
sg3
I0
sg4
I0
sg5
I0
sg6
F0.2222222222222222
sg7
I1
sg8
I0
sg9
F0.0
sg10
I0
sg11
I0
sg12
F0.0
sg13
I0
sg14
F0.0
sg15
I0
sg16
F3.2
sg17
F0.7171717171717171
sg18
F1.0084325837063255
sg19
I0
sg20
F4.04899
sg21
F0.0
sa(dp57
g2
F0.0
sg3
I0
sg4
I0
sg5
I0
sg6
F0.24796084828711257
sg7
I1
sg8
I0
sg9
F0.0
sg10
I0
sg11
I0
sg12
F0.0
sg13
I0
sg14
F0.011419249592169658
sg15
I0
sg16
F0.0
sg17
F0.7194127243066885
sg18
F0.993298307031271
sg19
I0
sg20
F0.0
sg21
F0.0
sa(dp58
g2
F0.0
sg3
I0
sg4
I0
sg5
I0
sg6
F0.22549019607843138
sg7
I1
sg8
I0
sg9
F0.0
sg10
I0
sg11
I0
sg12
F0.25
sg13
I0
sg14
F0.0
sg15
I0
sg16
F0.0
sg17
F0.7467320261437909
sg18
F1.0121937025708865
sg19
I0
sg20
F0.0003
sg21
F0.0
sa(dp59
g2
F0.0
sg3
I0
sg4
I0
sg5
I0
sg6
F0.22569444444444445
sg7
I1
sg8
I0
sg9
F0.0
sg10
I0
sg11
I0
sg12
F92.88
sg13
I0
sg14
F0.0
sg15
I0
sg16
F0.0
sg17
F0.734375
sg18
F0.9976192976796502
sg19
I0
sg20
F5.3632
sg21
F0.0
sa(dp60
g2
F0.0
sg3
I0
sg4
I0
sg5
I0
sg6
F0.2229965156794425
sg7
I1
sg8
I0
sg9
F0.0
sg10
I0
sg11
I0
sg12
F95.58
sg13
I0
sg14
F0.0
sg15
I0
sg16
F0.0
sg17
F0.7386759581881533
sg18
F1.0057783796641422
sg19
I0
sg20
F0.01771
sg21
F0.0
sa.